; Function Attrs: mustprogress nounwind uwtable
define hidden void @_ZN8LIR_ListC2EP11CompilationP10BlockBegin(ptr nocapture noundef nonnull writeonly align 8 dereferenceable(32) %0, ptr noundef %1, ptr nocapture readnone %2) unnamed_addr #1 align 2 {
  %4 = tail call noundef ptr @_ZN30GrowableArrayResourceAllocator8allocateEii(i32 noundef 8, i32 noundef 8) #11
  store i32 0, ptr %0, align 8
  %5 = getelementptr inbounds i8, ptr %0, i64 4
  store i32 8, ptr %5, align 4
  %6 = getelementptr inbounds i8, ptr %0, i64 8
  store ptr %4, ptr %6, align 8
  tail call void @llvm.memset.p0.i64(ptr noundef nonnull align 8 dereferenceable(64) %4, i8 0, i64 64, i1 false)
  %7 = getelementptr inbounds i8, ptr %0, i64 16
  store i64 0, ptr %7, align 8
  %8 = getelementptr inbounds i8, ptr %0, i64 24
  store ptr %1, ptr %8, align 8
  ret void
}